target datalayout = "e-m:e-p270:32:32-p271:32:32-p272:64:64-i64:64-i128:128-f80:128-n8:16:32:64-S128"
target triple = "x86_64-unknown-linux-gnu"

%"struct.YAML::Scanner::SimpleKey" = type { %"struct.YAML::Mark", i64, ptr, ptr, ptr }
%"struct.YAML::Mark" = type { i32, i32, i32 }

; Function Attrs: mustprogress nounwind uwtable
define void @_ZN4YAML7Scanner9SimpleKeyC2ERKNS_4MarkEm(ptr noundef nonnull align 8 dereferenceable(48) %this, ptr noundef nonnull align 4 dereferenceable(12) %mark_, i64 noundef %flowLevel_) unnamed_addr #4 align 2 {
entry:
  %this.addr = alloca ptr, align 8
  %mark_.addr = alloca ptr, align 8
  %flowLevel_.addr = alloca i64, align 8
  store ptr %this, ptr %this.addr, align 8
  store ptr %mark_, ptr %mark_.addr, align 8
  store i64 %flowLevel_, ptr %flowLevel_.addr, align 8
  %this1 = load ptr, ptr %this.addr, align 8
  %mark = getelementptr inbounds %"struct.YAML::Scanner::SimpleKey", ptr %this1, i32 0, i32 0
  %0 = load ptr, ptr %mark_.addr, align 8
  call void @llvm.memcpy.p0.p0.i64(ptr align 8 %mark, ptr align 4 %0, i64 12, i1 false)
  %flowLevel = getelementptr inbounds %"struct.YAML::Scanner::SimpleKey", ptr %this1, i32 0, i32 1
  %1 = load i64, ptr %flowLevel_.addr, align 8
  store i64 %1, ptr %flowLevel, align 8
  %pIndent = getelementptr inbounds %"struct.YAML::Scanner::SimpleKey", ptr %this1, i32 0, i32 2
  store ptr null, ptr %pIndent, align 8
  %pMapStart = getelementptr inbounds %"struct.YAML::Scanner::SimpleKey", ptr %this1, i32 0, i32 3
  store ptr null, ptr %pMapStart, align 8
  %pKey = getelementptr inbounds %"struct.YAML::Scanner::SimpleKey", ptr %this1, i32 0, i32 4
  store ptr null, ptr %pKey, align 8
  ret void
}