; Function Attrs: mustprogress nofree norecurse nosync nounwind willreturn memory(argmem: readwrite) uwtable
define void @_ZN4YAML7Scanner9SimpleKeyC2ERKNS_4MarkEm(ptr noundef nonnull writeonly align 8 captures(none) dereferenceable(48) initializes((0, 12), (16, 48)) %this, ptr noundef nonnull readonly align 4 captures(none) dereferenceable(12) %mark_, i64 noundef %flowLevel_) unnamed_addr #4 align 2 {
entry:
  tail call void @llvm.memcpy.p0.p0.i64(ptr noundef nonnull align 8 dereferenceable(12) %this, ptr noundef nonnull align 4 dereferenceable(12) %mark_, i64 12, i1 false)
  %flowLevel = getelementptr inbounds nuw i8, ptr %this, i64 16
  store i64 %flowLevel_, ptr %flowLevel, align 8
  %pIndent = getelementptr inbounds nuw i8, ptr %this, i64 24
  tail call void @llvm.memset.p0.i64(ptr noundef nonnull align 8 dereferenceable(24) %pIndent, i8 0, i64 24, i1 false)
  ret void
}